; Function Attrs: mustprogress uwtable
define dso_local noundef float @_ZN5ImGui33TableGetHeaderAngledMaxLabelWidthEv() local_unnamed_addr #3 {
  %1 = load ptr, ptr @GImGui, align 8, !tbaa !4
  %2 = getelementptr inbounds nuw i8, ptr %1, i64 8536
  %3 = load ptr, ptr %2, align 8, !tbaa !259
  %4 = getelementptr inbounds nuw i8, ptr %3, i64 108
  %5 = load i32, ptr %4, align 4, !tbaa !207
  %6 = icmp sgt i32 %5, 0
  br i1 %6, label %.lr.ph, label %._crit_edge

.lr.ph:                                           ; preds = %0
  %7 = getelementptr inbounds nuw i8, ptr %3, i64 80
  %8 = getelementptr inbounds nuw i8, ptr %3, i64 24
  %9 = getelementptr inbounds nuw i8, ptr %3, i64 566
  %10 = getelementptr inbounds nuw i8, ptr %3, i64 518
  %11 = getelementptr inbounds nuw i8, ptr %3, i64 408
  br label %16

._crit_edge:                                      ; preds = %49, %0
  %.0.lcssa = phi float [ 0.000000e+00, %0 ], [ %.1, %49 ]
  %12 = getelementptr inbounds nuw i8, ptr %1, i64 3112
  %13 = load float, ptr %12, align 4, !tbaa !417
  %14 = fmul float %13, 2.000000e+00
  %15 = fadd float %.0.lcssa, %14
  ret float %15

16:                                               ; preds = %.lr.ph, %49
  %17 = phi i32 [ %5, %.lr.ph ], [ %50, %49 ]
  %indvars.iv = phi i64 [ 0, %.lr.ph ], [ %indvars.iv.next, %49 ]
  %.018 = phi float [ 0.000000e+00, %.lr.ph ], [ %.1, %49 ]
  %18 = load ptr, ptr %7, align 8, !tbaa !280
  %19 = trunc nuw nsw i64 %indvars.iv to i32
  %20 = lshr i64 %indvars.iv, 5
  %21 = and i64 %20, 134217727
  %22 = getelementptr inbounds nuw i32, ptr %18, i64 %21
  %23 = load i32, ptr %22, align 4, !tbaa !273
  %24 = and i32 %19, 31
  %25 = shl nuw i32 1, %24
  %26 = and i32 %23, %25
  %.not = icmp eq i32 %26, 0
  br i1 %.not, label %49, label %27

27:                                               ; preds = %16
  %28 = load ptr, ptr %8, align 8, !tbaa !271
  %29 = getelementptr inbounds nuw %struct.ImGuiTableColumn, ptr %28, i64 %indvars.iv
  %30 = load i32, ptr %29, align 4, !tbaa !352
  %31 = and i32 %30, 262144
  %.not14 = icmp eq i32 %31, 0
  br i1 %.not14, label %49, label %32

32:                                               ; preds = %27
  %33 = load i8, ptr %9, align 2, !tbaa !208, !range !152, !noundef !153
  %34 = icmp eq i8 %33, 0
  br i1 %34, label %35, label %38

35:                                               ; preds = %32
  %36 = load i16, ptr %10, align 2, !tbaa !253
  %37 = sext i16 %36 to i64
  %.not.i = icmp slt i64 %indvars.iv, %37
  br i1 %.not.i, label %38, label %_ZN5ImGui18TableGetColumnNameEPK10ImGuiTablei.exit

38:                                               ; preds = %35, %32
  %39 = getelementptr inbounds nuw %struct.ImGuiTableColumn, ptr %28, i64 %indvars.iv, i32 18
  %40 = load i16, ptr %39, align 4, !tbaa !362
  %41 = icmp eq i16 %40, -1
  br i1 %41, label %_ZN5ImGui18TableGetColumnNameEPK10ImGuiTablei.exit, label %42

42:                                               ; preds = %38
  %43 = load ptr, ptr %11, align 8, !tbaa !316
  %44 = sext i16 %40 to i64
  %45 = getelementptr inbounds i8, ptr %43, i64 %44
  br label %_ZN5ImGui18TableGetColumnNameEPK10ImGuiTablei.exit

_ZN5ImGui18TableGetColumnNameEPK10ImGuiTablei.exit: ; preds = %35, %38, %42
  %.0.i = phi ptr [ @.str.4, %35 ], [ %45, %42 ], [ @.str.4, %38 ]
  %46 = tail call <2 x float> @_ZN5ImGui12CalcTextSizeEPKcS1_bf(ptr noundef %.0.i, ptr noundef null, i1 noundef zeroext true, float noundef -1.000000e+00)
  %.sroa.0.0.vec.extract = extractelement <2 x float> %46, i64 0
  %47 = fcmp oge float %.018, %.sroa.0.0.vec.extract
  %48 = select i1 %47, float %.018, float %.sroa.0.0.vec.extract
  %.pre = load i32, ptr %4, align 4, !tbaa !207
  br label %49

49:                                               ; preds = %16, %_ZN5ImGui18TableGetColumnNameEPK10ImGuiTablei.exit, %27
  %50 = phi i32 [ %.pre, %_ZN5ImGui18TableGetColumnNameEPK10ImGuiTablei.exit ], [ %17, %27 ], [ %17, %16 ]
  %.1 = phi float [ %48, %_ZN5ImGui18TableGetColumnNameEPK10ImGuiTablei.exit ], [ %.018, %27 ], [ %.018, %16 ]
  %indvars.iv.next = add nuw nsw i64 %indvars.iv, 1
  %51 = sext i32 %50 to i64
  %52 = icmp slt i64 %indvars.iv.next, %51
  br i1 %52, label %16, label %._crit_edge, !llvm.loop !555
}